target datalayout = "e-m:e-p270:32:32-p271:32:32-p272:64:64-i64:64-i128:128-f80:128-n8:16:32:64-S128"
target triple = "x86_64-pc-linux-gnu"

%struct._zval_struct = type { %union._zend_value, %union.anon, %union.anon.2 }
%union._zend_value = type { i64 }
%union.anon = type { i32 }
%union.anon.2 = type { i32 }
%struct._zend_refcounted_h = type { i32, %union.anon.3 }
%union.anon.3 = type { i32 }
%struct._zend_resource = type { %struct._zend_refcounted_h, i64, i32, ptr }

; Function Attrs: nounwind uwtable
define internal i32 @clean_module_resource(ptr noundef %0, ptr noundef %1) #0 {
  %3 = alloca ptr, align 8
  %4 = alloca ptr, align 8
  %5 = alloca i32, align 4
  store ptr %0, ptr %3, align 8
  store ptr %1, ptr %4, align 8
  %6 = load ptr, ptr %4, align 8
  %7 = load i32, ptr %6, align 4
  store i32 %7, ptr %5, align 4
  %8 = load ptr, ptr %3, align 8
  %9 = getelementptr inbounds %struct._zval_struct, ptr %8, i32 0, i32 0
  %10 = load ptr, ptr %9, align 8
  %11 = getelementptr inbounds %struct._zend_resource, ptr %10, i32 0, i32 2
  %12 = load i32, ptr %11, align 8
  %13 = load i32, ptr %5, align 4
  %14 = icmp eq i32 %12, %13
  %15 = zext i1 %14 to i32
  ret i32 %15
}