; Function Attrs: mustprogress nofree norecurse nosync nounwind willreturn memory(read, inaccessiblemem: none) uwtable
define internal i32 @clean_module_resource(ptr nocapture noundef readonly %0, ptr nocapture noundef readonly %1) #10 {
  %3 = load i32, ptr %1, align 4
  %4 = load ptr, ptr %0, align 8
  %5 = getelementptr inbounds i8, ptr %4, i64 16
  %6 = load i32, ptr %5, align 8
  %7 = icmp eq i32 %6, %3
  %8 = zext i1 %7 to i32
  ret i32 %8
}